target datalayout = "e-m:e-p270:32:32-p271:32:32-p272:64:64-i64:64-i128:128-f80:128-n8:16:32:64-S128"
target triple = "x86_64-pc-linux-gnu"

%"struct.lean::csimp_cfg" = type { i8, i32, i32, i32 }

; Function Attrs: mustprogress nounwind uwtable
define hidden void @_ZN4lean9csimp_cfgC2Ev(ptr noundef nonnull align 4 dereferenceable(16) %0) unnamed_addr #1 align 2 {
  %2 = alloca ptr, align 8
  store ptr %0, ptr %2, align 8, !tbaa !3
  %3 = load ptr, ptr %2, align 8
  %4 = getelementptr inbounds nuw %"struct.lean::csimp_cfg", ptr %3, i32 0, i32 0
  store i8 1, ptr %4, align 4, !tbaa !10
  %5 = getelementptr inbounds nuw %"struct.lean::csimp_cfg", ptr %3, i32 0, i32 1
  store i32 1, ptr %5, align 4, !tbaa !14
  %6 = getelementptr inbounds nuw %"struct.lean::csimp_cfg", ptr %3, i32 0, i32 2
  store i32 20, ptr %6, align 4, !tbaa !15
  %7 = getelementptr inbounds nuw %"struct.lean::csimp_cfg", ptr %3, i32 0, i32 3
  store i32 2, ptr %7, align 4, !tbaa !16
  ret void
}