; Function Attrs: mustprogress nofree norecurse nosync nounwind willreturn memory(argmem: write) uwtable
define hidden void @_ZN4lean9csimp_cfgC2Ev(ptr noundef nonnull writeonly align 4 captures(none) dereferenceable(16) initializes((0, 1), (4, 16)) %0) unnamed_addr #0 align 2 {
  store i8 1, ptr %0, align 4, !tbaa !3
  %2 = getelementptr inbounds nuw i8, ptr %0, i64 4
  store i32 1, ptr %2, align 4, !tbaa !9
  %3 = getelementptr inbounds nuw i8, ptr %0, i64 8
  store i32 20, ptr %3, align 4, !tbaa !10
  %4 = getelementptr inbounds nuw i8, ptr %0, i64 12
  store i32 2, ptr %4, align 4, !tbaa !11
  ret void
}